; Function Attrs: nounwind uwtable
define void @lv_chart_set_cursor_pos(ptr noundef %0, ptr noundef %1, ptr nocapture noundef readonly %2) local_unnamed_addr #0 {
  %.not = icmp eq ptr %1, null
  br i1 %.not, label %.preheader, label %4

.preheader:                                       ; preds = %3, %.preheader
  br label %.preheader

4:                                                ; preds = %3
  %5 = load i64, ptr %2, align 4
  store i64 %5, ptr %1, align 8
  %6 = getelementptr inbounds nuw i8, ptr %1, i64 28
  %7 = load i8, ptr %6, align 4
  %8 = or i8 %7, 1
  store i8 %8, ptr %6, align 4
  tail call void @lv_obj_invalidate(ptr noundef %0) #8
  ret void
}